target datalayout = "e-m:e-p270:32:32-p271:32:32-p272:64:64-i64:64-i128:128-f80:128-n8:16:32:64-S128"
target triple = "x86_64-pc-linux-gnu"

%struct.evp_test_st = type { %struct.stanza_st, ptr, i32, ptr, ptr, ptr, ptr, ptr, ptr, i32 }
%struct.stanza_st = type { ptr, ptr, i32, i32, i32, i32, i32, i32, [150 x %struct.pair_st], ptr, [32768 x i8] }
%struct.pair_st = type { ptr, ptr }
%struct.pkey_data_st = type { ptr, ptr, ptr, ptr, ptr, ptr, i64, ptr, i64, ptr, ptr, ptr, i32 }

@.str.29 = private unnamed_addr constant [27 x i8] c"../openssl/test/evp_test.c\00", align 1
@.str.96 = private unnamed_addr constant [30 x i8] c"got = OPENSSL_malloc(got_len)\00", align 1
@.str.280 = private unnamed_addr constant [15 x i8] c"INTERNAL_ERROR\00", align 1
@.str.435 = private unnamed_addr constant [39 x i8] c"copy = EVP_PKEY_CTX_dup(expected->ctx)\00", align 1
@.str.436 = private unnamed_addr constant [19 x i8] c"KEYOP_LENGTH_ERROR\00", align 1
@.str.437 = private unnamed_addr constant [12 x i8] c"KEYOP_ERROR\00", align 1
@.str.438 = private unnamed_addr constant [15 x i8] c"KEYOP_MISMATCH\00", align 1

; Function Attrs: nounwind uwtable
define internal i32 @pkey_test_run(ptr noundef %0) #0 {
  %2 = alloca ptr, align 8
  %3 = alloca ptr, align 8
  %4 = alloca ptr, align 8
  %5 = alloca i64, align 8
  %6 = alloca ptr, align 8
  store ptr %0, ptr %2, align 8, !tbaa !15
  call void @llvm.lifetime.start.p0(i64 8, ptr %3) #10
  %7 = load ptr, ptr %2, align 8, !tbaa !15
  %8 = getelementptr inbounds nuw %struct.evp_test_st, ptr %7, i32 0, i32 8
  %9 = load ptr, ptr %8, align 8, !tbaa !66
  store ptr %9, ptr %3, align 8, !tbaa !346
  call void @llvm.lifetime.start.p0(i64 8, ptr %4) #10
  store ptr null, ptr %4, align 8, !tbaa !4
  call void @llvm.lifetime.start.p0(i64 8, ptr %5) #10
  call void @llvm.lifetime.start.p0(i64 8, ptr %6) #10
  store ptr null, ptr %6, align 8, !tbaa !229
  %10 = load ptr, ptr %2, align 8, !tbaa !15
  %11 = call i32 @pkey_test_run_init(ptr noundef %10)
  %12 = icmp ne i32 %11, 0
  br i1 %12, label %14, label %13

13:                                               ; preds = %1
  br label %142

14:                                               ; preds = %1
  %15 = load ptr, ptr %3, align 8, !tbaa !346
  %16 = getelementptr inbounds nuw %struct.pkey_data_st, ptr %15, i32 0, i32 0
  %17 = load ptr, ptr %16, align 8, !tbaa !354
  %18 = call ptr @EVP_PKEY_CTX_dup(ptr noundef %17)
  store ptr %18, ptr %6, align 8, !tbaa !229
  %19 = call i32 @test_ptr(ptr noundef @.str.29, i32 noundef 2698, ptr noundef @.str.435, ptr noundef %18)
  %20 = icmp ne i32 %19, 0
  br i1 %20, label %24, label %21

21:                                               ; preds = %14
  %22 = load ptr, ptr %2, align 8, !tbaa !15
  %23 = getelementptr inbounds nuw %struct.evp_test_st, ptr %22, i32 0, i32 4
  store ptr @.str.280, ptr %23, align 8, !tbaa !63
  br label %142

24:                                               ; preds = %14
  %25 = load ptr, ptr %3, align 8, !tbaa !346
  %26 = getelementptr inbounds nuw %struct.pkey_data_st, ptr %25, i32 0, i32 4
  %27 = load ptr, ptr %26, align 8, !tbaa !356
  %28 = load ptr, ptr %3, align 8, !tbaa !346
  %29 = getelementptr inbounds nuw %struct.pkey_data_st, ptr %28, i32 0, i32 0
  %30 = load ptr, ptr %29, align 8, !tbaa !354
  %31 = load ptr, ptr %3, align 8, !tbaa !346
  %32 = getelementptr inbounds nuw %struct.pkey_data_st, ptr %31, i32 0, i32 5
  %33 = load ptr, ptr %32, align 8, !tbaa !352
  %34 = load ptr, ptr %3, align 8, !tbaa !346
  %35 = getelementptr inbounds nuw %struct.pkey_data_st, ptr %34, i32 0, i32 6
  %36 = load i64, ptr %35, align 8, !tbaa !357
  %37 = call i32 %27(ptr noundef %30, ptr noundef null, ptr noundef %5, ptr noundef %33, i64 noundef %36)
  %38 = icmp sle i32 %37, 0
  br i1 %38, label %44, label %39

39:                                               ; preds = %24
  %40 = load i64, ptr %5, align 8, !tbaa !13
  %41 = call noalias ptr @CRYPTO_malloc(i64 noundef %40, ptr noundef @.str.29, i32 noundef 2705)
  store ptr %41, ptr %4, align 8, !tbaa !4
  %42 = call i32 @test_ptr(ptr noundef @.str.29, i32 noundef 2705, ptr noundef @.str.96, ptr noundef %41)
  %43 = icmp ne i32 %42, 0
  br i1 %43, label %47, label %44

44:                                               ; preds = %39, %24
  %45 = load ptr, ptr %2, align 8, !tbaa !15
  %46 = getelementptr inbounds nuw %struct.evp_test_st, ptr %45, i32 0, i32 4
  store ptr @.str.436, ptr %46, align 8, !tbaa !63
  br label %142

47:                                               ; preds = %39
  %48 = load ptr, ptr %3, align 8, !tbaa !346
  %49 = getelementptr inbounds nuw %struct.pkey_data_st, ptr %48, i32 0, i32 4
  %50 = load ptr, ptr %49, align 8, !tbaa !356
  %51 = load ptr, ptr %3, align 8, !tbaa !346
  %52 = getelementptr inbounds nuw %struct.pkey_data_st, ptr %51, i32 0, i32 0
  %53 = load ptr, ptr %52, align 8, !tbaa !354
  %54 = load ptr, ptr %4, align 8, !tbaa !4
  %55 = load ptr, ptr %3, align 8, !tbaa !346
  %56 = getelementptr inbounds nuw %struct.pkey_data_st, ptr %55, i32 0, i32 5
  %57 = load ptr, ptr %56, align 8, !tbaa !352
  %58 = load ptr, ptr %3, align 8, !tbaa !346
  %59 = getelementptr inbounds nuw %struct.pkey_data_st, ptr %58, i32 0, i32 6
  %60 = load i64, ptr %59, align 8, !tbaa !357
  %61 = call i32 %50(ptr noundef %53, ptr noundef %54, ptr noundef %5, ptr noundef %57, i64 noundef %60)
  %62 = icmp sle i32 %61, 0
  br i1 %62, label %63, label %66

63:                                               ; preds = %47
  %64 = load ptr, ptr %2, align 8, !tbaa !15
  %65 = getelementptr inbounds nuw %struct.evp_test_st, ptr %64, i32 0, i32 4
  store ptr @.str.437, ptr %65, align 8, !tbaa !63
  br label %142

66:                                               ; preds = %47
  %67 = load ptr, ptr %2, align 8, !tbaa !15
  %68 = load ptr, ptr %3, align 8, !tbaa !346
  %69 = getelementptr inbounds nuw %struct.pkey_data_st, ptr %68, i32 0, i32 7
  %70 = load ptr, ptr %69, align 8, !tbaa !353
  %71 = load ptr, ptr %3, align 8, !tbaa !346
  %72 = getelementptr inbounds nuw %struct.pkey_data_st, ptr %71, i32 0, i32 8
  %73 = load i64, ptr %72, align 8, !tbaa !358
  %74 = load ptr, ptr %4, align 8, !tbaa !4
  %75 = load i64, ptr %5, align 8, !tbaa !13
  %76 = call i32 @memory_err_compare(ptr noundef %67, ptr noundef @.str.438, ptr noundef %70, i64 noundef %73, ptr noundef %74, i64 noundef %75)
  %77 = icmp ne i32 %76, 0
  br i1 %77, label %79, label %78

78:                                               ; preds = %66
  br label %142

79:                                               ; preds = %66
  %80 = load ptr, ptr %2, align 8, !tbaa !15
  %81 = getelementptr inbounds nuw %struct.evp_test_st, ptr %80, i32 0, i32 4
  store ptr null, ptr %81, align 8, !tbaa !63
  %82 = load ptr, ptr %4, align 8, !tbaa !4
  call void @CRYPTO_free(ptr noundef %82, ptr noundef @.str.29, i32 noundef 2721)
  store ptr null, ptr %4, align 8, !tbaa !4
  %83 = load ptr, ptr %3, align 8, !tbaa !346
  %84 = getelementptr inbounds nuw %struct.pkey_data_st, ptr %83, i32 0, i32 4
  %85 = load ptr, ptr %84, align 8, !tbaa !356
  %86 = load ptr, ptr %6, align 8, !tbaa !229
  %87 = load ptr, ptr %3, align 8, !tbaa !346
  %88 = getelementptr inbounds nuw %struct.pkey_data_st, ptr %87, i32 0, i32 5
  %89 = load ptr, ptr %88, align 8, !tbaa !352
  %90 = load ptr, ptr %3, align 8, !tbaa !346
  %91 = getelementptr inbounds nuw %struct.pkey_data_st, ptr %90, i32 0, i32 6
  %92 = load i64, ptr %91, align 8, !tbaa !357
  %93 = call i32 %85(ptr noundef %86, ptr noundef null, ptr noundef %5, ptr noundef %89, i64 noundef %92)
  %94 = icmp sle i32 %93, 0
  br i1 %94, label %100, label %95

95:                                               ; preds = %79
  %96 = load i64, ptr %5, align 8, !tbaa !13
  %97 = call noalias ptr @CRYPTO_malloc(i64 noundef %96, ptr noundef @.str.29, i32 noundef 2727)
  store ptr %97, ptr %4, align 8, !tbaa !4
  %98 = call i32 @test_ptr(ptr noundef @.str.29, i32 noundef 2727, ptr noundef @.str.96, ptr noundef %97)
  %99 = icmp ne i32 %98, 0
  br i1 %99, label %103, label %100

100:                                              ; preds = %95, %79
  %101 = load ptr, ptr %2, align 8, !tbaa !15
  %102 = getelementptr inbounds nuw %struct.evp_test_st, ptr %101, i32 0, i32 4
  store ptr @.str.436, ptr %102, align 8, !tbaa !63
  br label %142

103:                                              ; preds = %95
  %104 = load ptr, ptr %3, align 8, !tbaa !346
  %105 = getelementptr inbounds nuw %struct.pkey_data_st, ptr %104, i32 0, i32 4
  %106 = load ptr, ptr %105, align 8, !tbaa !356
  %107 = load ptr, ptr %6, align 8, !tbaa !229
  %108 = load ptr, ptr %4, align 8, !tbaa !4
  %109 = load ptr, ptr %3, align 8, !tbaa !346
  %110 = getelementptr inbounds nuw %struct.pkey_data_st, ptr %109, i32 0, i32 5
  %111 = load ptr, ptr %110, align 8, !tbaa !352
  %112 = load ptr, ptr %3, align 8, !tbaa !346
  %113 = getelementptr inbounds nuw %struct.pkey_data_st, ptr %112, i32 0, i32 6
  %114 = load i64, ptr %113, align 8, !tbaa !357
  %115 = call i32 %106(ptr noundef %107, ptr noundef %108, ptr noundef %5, ptr noundef %111, i64 noundef %114)
  %116 = icmp sle i32 %115, 0
  br i1 %116, label %117, label %120

117:                                              ; preds = %103
  %118 = load ptr, ptr %2, align 8, !tbaa !15
  %119 = getelementptr inbounds nuw %struct.evp_test_st, ptr %118, i32 0, i32 4
  store ptr @.str.437, ptr %119, align 8, !tbaa !63
  br label %142

120:                                              ; preds = %103
  %121 = load ptr, ptr %2, align 8, !tbaa !15
  %122 = load ptr, ptr %3, align 8, !tbaa !346
  %123 = getelementptr inbounds nuw %struct.pkey_data_st, ptr %122, i32 0, i32 7
  %124 = load ptr, ptr %123, align 8, !tbaa !353
  %125 = load ptr, ptr %3, align 8, !tbaa !346
  %126 = getelementptr inbounds nuw %struct.pkey_data_st, ptr %125, i32 0, i32 8
  %127 = load i64, ptr %126, align 8, !tbaa !358
  %128 = load ptr, ptr %4, align 8, !tbaa !4
  %129 = load i64, ptr %5, align 8, !tbaa !13
  %130 = call i32 @memory_err_compare(ptr noundef %121, ptr noundef @.str.438, ptr noundef %124, i64 noundef %127, ptr noundef %128, i64 noundef %129)
  %131 = icmp ne i32 %130, 0
  br i1 %131, label %133, label %132

132:                                              ; preds = %120
  br label %142

133:                                              ; preds = %120
  %134 = load ptr, ptr %3, align 8, !tbaa !346
  %135 = getelementptr inbounds nuw %struct.pkey_data_st, ptr %134, i32 0, i32 0
  %136 = load ptr, ptr %135, align 8, !tbaa !354
  %137 = load ptr, ptr %2, align 8, !tbaa !15
  %138 = call i32 @pkey_check_fips_approved(ptr noundef %136, ptr noundef %137)
  %139 = icmp sle i32 %138, 0
  br i1 %139, label %140, label %141

140:                                              ; preds = %133
  br label %142

141:                                              ; preds = %133
  br label %142

142:                                              ; preds = %141, %140, %132, %117, %100, %78, %63, %44, %21, %13
  %143 = load ptr, ptr %4, align 8, !tbaa !4
  call void @CRYPTO_free(ptr noundef %143, ptr noundef @.str.29, i32 noundef 2745)
  %144 = load ptr, ptr %6, align 8, !tbaa !229
  call void @EVP_PKEY_CTX_free(ptr noundef %144)
  call void @llvm.lifetime.end.p0(i64 8, ptr %6) #10
  call void @llvm.lifetime.end.p0(i64 8, ptr %5) #10
  call void @llvm.lifetime.end.p0(i64 8, ptr %4) #10
  call void @llvm.lifetime.end.p0(i64 8, ptr %3) #10
  ret i32 1
}