; Function Attrs: nounwind uwtable
define internal noundef i32 @pkey_test_run(ptr noundef captures(none) %0) #1 {
  %2 = alloca i64, align 8
  %3 = getelementptr inbounds nuw i8, ptr %0, i64 35272
  %4 = load ptr, ptr %3, align 8, !tbaa !20
  call void @llvm.lifetime.start.p0(i64 8, ptr nonnull %2) #10
  %5 = tail call fastcc i32 @pkey_test_run_init(ptr noundef %0)
  %.not = icmp eq i32 %5, 0
  br i1 %.not, label %80, label %6

6:                                                ; preds = %1
  %7 = load ptr, ptr %4, align 8, !tbaa !292
  %8 = tail call ptr @EVP_PKEY_CTX_dup(ptr noundef %7) #10
  %9 = tail call i32 @test_ptr(ptr noundef nonnull @.str.29, i32 noundef 2698, ptr noundef nonnull @.str.435, ptr noundef %8) #10
  %.not41 = icmp eq i32 %9, 0
  br i1 %.not41, label %10, label %12

10:                                               ; preds = %6
  %11 = getelementptr inbounds nuw i8, ptr %0, i64 35240
  store ptr @.str.280, ptr %11, align 8, !tbaa !64
  br label %80

12:                                               ; preds = %6
  %13 = getelementptr inbounds nuw i8, ptr %4, i64 32
  %14 = load ptr, ptr %13, align 8, !tbaa !287
  %15 = load ptr, ptr %4, align 8, !tbaa !292
  %16 = getelementptr inbounds nuw i8, ptr %4, i64 40
  %17 = load ptr, ptr %16, align 8, !tbaa !290
  %18 = getelementptr inbounds nuw i8, ptr %4, i64 48
  %19 = load i64, ptr %18, align 8, !tbaa !294
  %20 = call i32 %14(ptr noundef %15, ptr noundef null, ptr noundef nonnull %2, ptr noundef %17, i64 noundef %19) #10
  %21 = icmp slt i32 %20, 1
  br i1 %21, label %26, label %22

22:                                               ; preds = %12
  %23 = load i64, ptr %2, align 8, !tbaa !35
  %24 = call noalias ptr @CRYPTO_malloc(i64 noundef %23, ptr noundef nonnull @.str.29, i32 noundef 2705) #10
  %25 = call i32 @test_ptr(ptr noundef nonnull @.str.29, i32 noundef 2705, ptr noundef nonnull @.str.96, ptr noundef %24) #10
  %.not42 = icmp eq i32 %25, 0
  br i1 %.not42, label %26, label %28

26:                                               ; preds = %22, %12
  %.1 = phi ptr [ null, %12 ], [ %24, %22 ]
  %27 = getelementptr inbounds nuw i8, ptr %0, i64 35240
  store ptr @.str.436, ptr %27, align 8, !tbaa !64
  br label %80

28:                                               ; preds = %22
  %29 = load ptr, ptr %13, align 8, !tbaa !287
  %30 = load ptr, ptr %4, align 8, !tbaa !292
  %31 = load ptr, ptr %16, align 8, !tbaa !290
  %32 = load i64, ptr %18, align 8, !tbaa !294
  %33 = call i32 %29(ptr noundef %30, ptr noundef %24, ptr noundef nonnull %2, ptr noundef %31, i64 noundef %32) #10
  %34 = icmp slt i32 %33, 1
  br i1 %34, label %35, label %37

35:                                               ; preds = %28
  %36 = getelementptr inbounds nuw i8, ptr %0, i64 35240
  store ptr @.str.437, ptr %36, align 8, !tbaa !64
  br label %80

37:                                               ; preds = %28
  %38 = getelementptr inbounds nuw i8, ptr %4, i64 56
  %39 = load ptr, ptr %38, align 8, !tbaa !291
  %40 = getelementptr inbounds nuw i8, ptr %4, i64 64
  %41 = load i64, ptr %40, align 8, !tbaa !295
  %42 = load i64, ptr %2, align 8, !tbaa !35
  %43 = getelementptr inbounds nuw i8, ptr %0, i64 35256
  %44 = load ptr, ptr %43, align 8, !tbaa !24
  %.not.i = icmp eq ptr %44, null
  br i1 %.not.i, label %50, label %45

45:                                               ; preds = %37
  %46 = call i32 @strcmp(ptr noundef nonnull dereferenceable(1) %44, ptr noundef nonnull dereferenceable(15) @.str.438) #11
  %47 = icmp eq i32 %46, 0
  br i1 %47, label %48, label %50

48:                                               ; preds = %45
  %49 = call i32 @test_mem_ne(ptr noundef nonnull @.str.29, i32 noundef 332, ptr noundef nonnull @.str.213, ptr noundef nonnull @.str.112, ptr noundef %39, i64 noundef %41, ptr noundef %24, i64 noundef %42) #10
  %.not15.i.not = icmp eq i32 %49, 0
  br i1 %.not15.i.not, label %memory_err_compare.exit, label %memory_err_compare.exit.thread

50:                                               ; preds = %37, %45
  %51 = call i32 @test_mem_eq(ptr noundef nonnull @.str.29, i32 noundef 334, ptr noundef nonnull @.str.213, ptr noundef nonnull @.str.112, ptr noundef %39, i64 noundef %41, ptr noundef %24, i64 noundef %42) #10
  %52 = icmp eq i32 %51, 0
  br i1 %52, label %memory_err_compare.exit.thread, label %memory_err_compare.exit

memory_err_compare.exit.thread:                   ; preds = %48, %50
  %53 = getelementptr inbounds nuw i8, ptr %0, i64 35240
  store ptr @.str.438, ptr %53, align 8, !tbaa !64
  br label %80

memory_err_compare.exit:                          ; preds = %48, %50
  %54 = getelementptr inbounds nuw i8, ptr %0, i64 35240
  store ptr null, ptr %54, align 8, !tbaa !64
  call void @CRYPTO_free(ptr noundef %24, ptr noundef nonnull @.str.29, i32 noundef 2721) #10
  %55 = load ptr, ptr %13, align 8, !tbaa !287
  %56 = load ptr, ptr %16, align 8, !tbaa !290
  %57 = load i64, ptr %18, align 8, !tbaa !294
  %58 = call i32 %55(ptr noundef %8, ptr noundef null, ptr noundef nonnull %2, ptr noundef %56, i64 noundef %57) #10
  %59 = icmp slt i32 %58, 1
  br i1 %59, label %64, label %60

60:                                               ; preds = %memory_err_compare.exit
  %61 = load i64, ptr %2, align 8, !tbaa !35
  %62 = call noalias ptr @CRYPTO_malloc(i64 noundef %61, ptr noundef nonnull @.str.29, i32 noundef 2727) #10
  %63 = call i32 @test_ptr(ptr noundef nonnull @.str.29, i32 noundef 2727, ptr noundef nonnull @.str.96, ptr noundef %62) #10
  %.not44 = icmp eq i32 %63, 0
  br i1 %.not44, label %64, label %65

64:                                               ; preds = %60, %memory_err_compare.exit
  %.2 = phi ptr [ null, %memory_err_compare.exit ], [ %62, %60 ]
  store ptr @.str.436, ptr %54, align 8, !tbaa !64
  br label %80

65:                                               ; preds = %60
  %66 = load ptr, ptr %13, align 8, !tbaa !287
  %67 = load ptr, ptr %16, align 8, !tbaa !290
  %68 = load i64, ptr %18, align 8, !tbaa !294
  %69 = call i32 %66(ptr noundef %8, ptr noundef %62, ptr noundef nonnull %2, ptr noundef %67, i64 noundef %68) #10
  %70 = icmp slt i32 %69, 1
  br i1 %70, label %71, label %72

71:                                               ; preds = %65
  store ptr @.str.437, ptr %54, align 8, !tbaa !64
  br label %80

72:                                               ; preds = %65
  %73 = load ptr, ptr %38, align 8, !tbaa !291
  %74 = load i64, ptr %40, align 8, !tbaa !295
  %75 = load i64, ptr %2, align 8, !tbaa !35
  %76 = call fastcc i32 @memory_err_compare(ptr noundef nonnull %0, ptr noundef nonnull @.str.438, ptr noundef %73, i64 noundef %74, ptr noundef %62, i64 noundef %75)
  %.not45 = icmp eq i32 %76, 0
  br i1 %.not45, label %80, label %77

77:                                               ; preds = %72
  %78 = load ptr, ptr %4, align 8, !tbaa !292
  %79 = call fastcc i32 @pkey_check_fips_approved(ptr noundef %78, ptr noundef nonnull %0)
  br label %80

80:                                               ; preds = %memory_err_compare.exit.thread, %77, %72, %1, %71, %64, %35, %26, %10
  %.040 = phi ptr [ %.1, %26 ], [ %24, %35 ], [ %.2, %64 ], [ %62, %71 ], [ %62, %77 ], [ %62, %72 ], [ null, %10 ], [ null, %1 ], [ %24, %memory_err_compare.exit.thread ]
  %.0 = phi ptr [ %8, %26 ], [ %8, %35 ], [ %8, %64 ], [ %8, %71 ], [ %8, %77 ], [ %8, %72 ], [ %8, %10 ], [ null, %1 ], [ %8, %memory_err_compare.exit.thread ]
  call void @CRYPTO_free(ptr noundef %.040, ptr noundef nonnull @.str.29, i32 noundef 2745) #10
  call void @EVP_PKEY_CTX_free(ptr noundef %.0) #10
  call void @llvm.lifetime.end.p0(i64 8, ptr nonnull %2) #10
  ret i32 1
}